; ModuleID = '22/842.c'
source_filename = "22/842.c"
target datalayout = "e-m:e-p270:32:32-p271:32:32-p272:64:64-i64:64-f80:128-n8:16:32:64-S128"
target triple = "x86_64-pc-linux-gnu"

@.str = private unnamed_addr constant [4 x i8] c"No\0A\00", align 1
@.str.1 = private unnamed_addr constant [4 x i8] c"%d\0A\00", align 1

; Function Attrs: noinline nounwind uwtable
define dso_local i32 @main() #0 {
  %1 = alloca i32, align 4
  %2 = alloca i32, align 4
  %3 = alloca i32, align 4
  %4 = alloca i32, align 4
  %5 = alloca [300 x i32], align 16
  %6 = alloca i32, align 4
  %7 = alloca i8, align 1
  store i32 0, i32* %1, align 4
  store i32 0, i32* %2, align 4
  store i32 0, i32* %3, align 4
  store i32 0, i32* %4, align 4
  %8 = bitcast [300 x i32]* %5 to i8*
  call void @llvm.memset.p0i8.i64(i8* align 16 %8, i8 0, i64 1200, i1 false)
  store i32 0, i32* %6, align 4
  br label %9

9:                                                ; preds = %39, %0
  br label %10

10:                                               ; preds = %21, %9
  %11 = call i32 @getchar()
  %12 = trunc i32 %11 to i8
  store i8 %12, i8* %7, align 1
  %13 = load i8, i8* %7, align 1
  %14 = sext i8 %13 to i32
  %15 = icmp eq i32 %14, 44
  br i1 %15, label %20, label %16

16:                                               ; preds = %10
  %17 = load i8, i8* %7, align 1
  %18 = sext i8 %17 to i32
  %19 = icmp eq i32 %18, 10
  br i1 %19, label %20, label %21

20:                                               ; preds = %16, %10
  br label %34

21:                                               ; preds = %16
  %22 = load i32, i32* %2, align 4
  %23 = sext i32 %22 to i64
  %24 = getelementptr inbounds [300 x i32], [300 x i32]* %5, i64 0, i64 %23
  %25 = load i32, i32* %24, align 4
  %26 = mul nsw i32 %25, 10
  %27 = load i8, i8* %7, align 1
  %28 = sext i8 %27 to i32
  %29 = sub nsw i32 %28, 48
  %30 = add nsw i32 %26, %29
  %31 = load i32, i32* %2, align 4
  %32 = sext i32 %31 to i64
  %33 = getelementptr inbounds [300 x i32], [300 x i32]* %5, i64 0, i64 %32
  store i32 %30, i32* %33, align 4
  br label %10

34:                                               ; preds = %20
  %35 = load i8, i8* %7, align 1
  %36 = sext i8 %35 to i32
  %37 = icmp eq i32 %36, 10
  br i1 %37, label %38, label %39

38:                                               ; preds = %34
  br label %42

39:                                               ; preds = %34
  %40 = load i32, i32* %2, align 4
  %41 = add nsw i32 %40, 1
  store i32 %41, i32* %2, align 4
  br label %9

42:                                               ; preds = %38
  %43 = load i32, i32* %2, align 4
  %44 = icmp eq i32 %43, 0
  br i1 %44, label %45, label %47

45:                                               ; preds = %42
  %46 = call i32 (i8*, ...) @printf(i8* getelementptr inbounds ([4 x i8], [4 x i8]* @.str, i64 0, i64 0))
  call void @exit(i32 0) #4
  unreachable

47:                                               ; preds = %42
  store i32 0, i32* %3, align 4
  br label %48

48:                                               ; preds = %66, %47
  %49 = load i32, i32* %3, align 4
  %50 = load i32, i32* %2, align 4
  %51 = icmp sle i32 %49, %50
  br i1 %51, label %52, label %69

52:                                               ; preds = %48
  %53 = load i32, i32* %3, align 4
  %54 = sext i32 %53 to i64
  %55 = getelementptr inbounds [300 x i32], [300 x i32]* %5, i64 0, i64 %54
  %56 = load i32, i32* %55, align 4
  %57 = load i32, i32* %4, align 4
  %58 = sext i32 %57 to i64
  %59 = getelementptr inbounds [300 x i32], [300 x i32]* %5, i64 0, i64 %58
  %60 = load i32, i32* %59, align 4
  %61 = icmp eq i32 %56, %60
  br i1 %61, label %62, label %65

62:                                               ; preds = %52
  %63 = load i32, i32* %6, align 4
  %64 = add nsw i32 %63, 1
  store i32 %64, i32* %6, align 4
  br label %65

65:                                               ; preds = %62, %52
  br label %66

66:                                               ; preds = %65
  %67 = load i32, i32* %3, align 4
  %68 = add nsw i32 %67, 1
  store i32 %68, i32* %3, align 4
  br label %48

69:                                               ; preds = %48
  %70 = load i32, i32* %6, align 4
  %71 = load i32, i32* %2, align 4
  %72 = add nsw i32 %71, 1
  %73 = icmp eq i32 %70, %72
  br i1 %73, label %74, label %76

74:                                               ; preds = %69
  %75 = call i32 (i8*, ...) @printf(i8* getelementptr inbounds ([4 x i8], [4 x i8]* @.str, i64 0, i64 0))
  call void @exit(i32 0) #4
  unreachable

76:                                               ; preds = %69
  store i32 0, i32* %3, align 4
  br label %77

77:                                               ; preds = %94, %76
  %78 = load i32, i32* %3, align 4
  %79 = load i32, i32* %2, align 4
  %80 = icmp sle i32 %78, %79
  br i1 %80, label %81, label %97

81:                                               ; preds = %77
  %82 = load i32, i32* %3, align 4
  %83 = sext i32 %82 to i64
  %84 = getelementptr inbounds [300 x i32], [300 x i32]* %5, i64 0, i64 %83
  %85 = load i32, i32* %84, align 4
  %86 = load i32, i32* %4, align 4
  %87 = sext i32 %86 to i64
  %88 = getelementptr inbounds [300 x i32], [300 x i32]* %5, i64 0, i64 %87
  %89 = load i32, i32* %88, align 4
  %90 = icmp sgt i32 %85, %89
  br i1 %90, label %91, label %93

91:                                               ; preds = %81
  %92 = load i32, i32* %3, align 4
  store i32 %92, i32* %4, align 4
  br label %93

93:                                               ; preds = %91, %81
  br label %94

94:                                               ; preds = %93
  %95 = load i32, i32* %3, align 4
  %96 = add nsw i32 %95, 1
  store i32 %96, i32* %3, align 4
  br label %77

97:                                               ; preds = %77
  %98 = load i32, i32* %4, align 4
  %99 = sext i32 %98 to i64
  %100 = getelementptr inbounds [300 x i32], [300 x i32]* %5, i64 0, i64 %99
  %101 = load i32, i32* %100, align 4
  store i32 %101, i32* %6, align 4
  store i32 0, i32* %3, align 4
  br label %102

102:                                              ; preds = %118, %97
  %103 = load i32, i32* %3, align 4
  %104 = load i32, i32* %2, align 4
  %105 = icmp sle i32 %103, %104
  br i1 %105, label %106, label %121

106:                                              ; preds = %102
  %107 = load i32, i32* %3, align 4
  %108 = sext i32 %107 to i64
  %109 = getelementptr inbounds [300 x i32], [300 x i32]* %5, i64 0, i64 %108
  %110 = load i32, i32* %109, align 4
  %111 = load i32, i32* %6, align 4
  %112 = icmp eq i32 %110, %111
  br i1 %112, label %113, label %117

113:                                              ; preds = %106
  %114 = load i32, i32* %3, align 4
  %115 = sext i32 %114 to i64
  %116 = getelementptr inbounds [300 x i32], [300 x i32]* %5, i64 0, i64 %115
  store i32 0, i32* %116, align 4
  br label %117

117:                                              ; preds = %113, %106
  br label %118

118:                                              ; preds = %117
  %119 = load i32, i32* %3, align 4
  %120 = add nsw i32 %119, 1
  store i32 %120, i32* %3, align 4
  br label %102

121:                                              ; preds = %102
  store i32 0, i32* %3, align 4
  br label %122

122:                                              ; preds = %139, %121
  %123 = load i32, i32* %3, align 4
  %124 = load i32, i32* %2, align 4
  %125 = icmp sle i32 %123, %124
  br i1 %125, label %126, label %142

126:                                              ; preds = %122
  %127 = load i32, i32* %3, align 4
  %128 = sext i32 %127 to i64
  %129 = getelementptr inbounds [300 x i32], [300 x i32]* %5, i64 0, i64 %128
  %130 = load i32, i32* %129, align 4
  %131 = load i32, i32* %4, align 4
  %132 = sext i32 %131 to i64
  %133 = getelementptr inbounds [300 x i32], [300 x i32]* %5, i64 0, i64 %132
  %134 = load i32, i32* %133, align 4
  %135 = icmp sgt i32 %130, %134
  br i1 %135, label %136, label %138

136:                                              ; preds = %126
  %137 = load i32, i32* %3, align 4
  store i32 %137, i32* %4, align 4
  br label %138

138:                                              ; preds = %136, %126
  br label %139

139:                                              ; preds = %138
  %140 = load i32, i32* %3, align 4
  %141 = add nsw i32 %140, 1
  store i32 %141, i32* %3, align 4
  br label %122

142:                                              ; preds = %122
  %143 = load i32, i32* %4, align 4
  %144 = sext i32 %143 to i64
  %145 = getelementptr inbounds [300 x i32], [300 x i32]* %5, i64 0, i64 %144
  %146 = load i32, i32* %145, align 4
  %147 = call i32 (i8*, ...) @printf(i8* getelementptr inbounds ([4 x i8], [4 x i8]* @.str.1, i64 0, i64 0), i32 %146)
  %148 = load i32, i32* %1, align 4
  ret i32 %148
}

; Function Attrs: argmemonly nounwind willreturn
declare void @llvm.memset.p0i8.i64(i8* nocapture writeonly, i8, i64, i1 immarg) #1

declare dso_local i32 @getchar() #2

declare dso_local i32 @printf(i8*, ...) #2

; Function Attrs: noreturn nounwind
declare dso_local void @exit(i32) #3


!llvm.module.flags = !{!0}
!llvm.ident = !{!1}

!0 = !{i32 1, !"wchar_size", i32 4}
!1 = !{!"clang version 10.0.0-4ubuntu1 "}
